; Function Attrs: mustprogress uwtable
define hidden noundef nonnull align 8 dereferenceable(8) ptr @_ZNK2lp10int_solver16display_row_infoERSoj(ptr noundef nonnull readonly align 8 captures(none) dereferenceable(32) %0, ptr noundef nonnull align 8 dereferenceable(8) %1, i32 noundef %2) local_unnamed_addr #4 align 2 {
  %4 = getelementptr inbounds nuw i8, ptr %0, i64 8
  %5 = load ptr, ptr %4, align 8, !tbaa !202
  %6 = getelementptr inbounds nuw i8, ptr %5, i64 536
  %7 = load ptr, ptr %6, align 8, !tbaa !338
  %8 = getelementptr inbounds nuw i8, ptr %7, i64 136
  %9 = zext i32 %2 to i64
  %10 = load ptr, ptr %8, align 8, !tbaa !261
  %11 = getelementptr inbounds nuw %"class.std::vector.119", ptr %10, i64 %9
  %12 = getelementptr inbounds nuw i8, ptr %0, i64 16
  %13 = load ptr, ptr %12, align 8, !tbaa !40
  %14 = tail call noundef nonnull align 8 dereferenceable(8) ptr @_ZNK2lp10int_solver3imp11display_rowERSoRKSt6vectorINS_8row_cellI8rationalEE13std_allocatorIS6_EE(ptr noundef nonnull align 8 dereferenceable(484) %13, ptr noundef nonnull align 8 dereferenceable(8) %1, ptr noundef nonnull align 8 dereferenceable(24) %11)
  ret ptr %14
}